target datalayout = "e-m:e-p270:32:32-p271:32:32-p272:64:64-i64:64-i128:128-f80:128-n8:16:32:64-S128"
target triple = "x86_64-pc-linux-gnu"

%"struct.ofbx::DataView" = type <{ ptr, ptr, i8, [7 x i8] }>
%"struct.ofbx::Object" = type { ptr, i64, [128 x i8], ptr, ptr, i8, ptr }
%"struct.ofbx::Element" = type { %"struct.ofbx::IElement", %"struct.ofbx::DataView", ptr, ptr, ptr }
%"struct.ofbx::IElement" = type { ptr }
%"struct.ofbx::Property" = type { %"struct.ofbx::IElementProperty", i32, i8, [3 x i8], %"struct.ofbx::DataView", ptr }
%"struct.ofbx::IElementProperty" = type { ptr }

@_ZTVN4ofbx6ObjectE = linkonce_odr unnamed_addr constant { [5 x ptr] } { [5 x ptr] [ptr null, ptr @_ZTIN4ofbx6ObjectE, ptr @_ZN4ofbx6ObjectD2Ev, ptr @_ZN4ofbx6ObjectD0Ev, ptr @__cxa_pure_virtual] }, comdat, align 8

; Function Attrs: mustprogress nounwind uwtable
define linkonce_odr void @_ZNK4ofbx8DataView8toStringILi128EEEvRAT__c(ptr noundef nonnull align 8 dereferenceable(17) %0, ptr noundef nonnull align 1 dereferenceable(128) %1) #0 comdat align 2 {
  %3 = alloca ptr, align 8
  %4 = alloca ptr, align 8
  %5 = alloca ptr, align 8
  %6 = alloca ptr, align 8
  store ptr %0, ptr %3, align 8
  store ptr %1, ptr %4, align 8
  %7 = load ptr, ptr %3, align 8
  %8 = load ptr, ptr %4, align 8
  %9 = getelementptr inbounds [128 x i8], ptr %8, i64 0, i64 0
  store ptr %9, ptr %5, align 8
  %10 = getelementptr inbounds %"struct.ofbx::DataView", ptr %7, i32 0, i32 0
  %11 = load ptr, ptr %10, align 8
  store ptr %11, ptr %6, align 8
  br label %12

12:                                               ; preds = %27, %2
  %13 = load ptr, ptr %6, align 8
  %14 = getelementptr inbounds %"struct.ofbx::DataView", ptr %7, i32 0, i32 1
  %15 = load ptr, ptr %14, align 8
  %16 = icmp ne ptr %13, %15
  br i1 %16, label %17, label %25

17:                                               ; preds = %12
  %18 = load ptr, ptr %5, align 8
  %19 = load ptr, ptr %4, align 8
  %20 = getelementptr inbounds [128 x i8], ptr %19, i64 0, i64 0
  %21 = ptrtoint ptr %18 to i64
  %22 = ptrtoint ptr %20 to i64
  %23 = sub i64 %21, %22
  %24 = icmp slt i64 %23, 127
  br label %25

25:                                               ; preds = %17, %12
  %26 = phi i1 [ false, %12 ], [ %24, %17 ]
  br i1 %26, label %27, label %35

27:                                               ; preds = %25
  %28 = load ptr, ptr %6, align 8
  %29 = load i8, ptr %28, align 1
  %30 = load ptr, ptr %5, align 8
  store i8 %29, ptr %30, align 1
  %31 = load ptr, ptr %6, align 8
  %32 = getelementptr inbounds i8, ptr %31, i32 1
  store ptr %32, ptr %6, align 8
  %33 = load ptr, ptr %5, align 8
  %34 = getelementptr inbounds i8, ptr %33, i32 1
  store ptr %34, ptr %5, align 8
  br label %12, !llvm.loop !7

35:                                               ; preds = %25
  %36 = load ptr, ptr %5, align 8
  store i8 0, ptr %36, align 1
  ret void
}

; Function Attrs: mustprogress uwtable
define void @_ZN4ofbx6ObjectC2ERKNS_5SceneERKNS_8IElementE(ptr noundef nonnull align 8 dereferenceable(176) %0, ptr noundef nonnull align 8 dereferenceable(296) %1, ptr noundef nonnull align 8 dereferenceable(8) %2) unnamed_addr #3 align 2 {
  %4 = alloca ptr, align 8
  %5 = alloca ptr, align 8
  %6 = alloca ptr, align 8
  %7 = alloca ptr, align 8
  store ptr %0, ptr %4, align 8
  store ptr %1, ptr %5, align 8
  store ptr %2, ptr %6, align 8
  %8 = load ptr, ptr %4, align 8
  store ptr getelementptr inbounds ({ [5 x ptr] }, ptr @_ZTVN4ofbx6ObjectE, i32 0, i32 0, i32 2), ptr %8, align 8
  %9 = getelementptr inbounds %"struct.ofbx::Object", ptr %8, i32 0, i32 3
  %10 = load ptr, ptr %6, align 8
  store ptr %10, ptr %9, align 8
  %11 = getelementptr inbounds %"struct.ofbx::Object", ptr %8, i32 0, i32 4
  store ptr null, ptr %11, align 8
  %12 = getelementptr inbounds %"struct.ofbx::Object", ptr %8, i32 0, i32 5
  store i8 0, ptr %12, align 8
  %13 = getelementptr inbounds %"struct.ofbx::Object", ptr %8, i32 0, i32 6
  %14 = load ptr, ptr %5, align 8
  store ptr %14, ptr %13, align 8
  %15 = load ptr, ptr %6, align 8
  store ptr %15, ptr %7, align 8
  %16 = load ptr, ptr %7, align 8
  %17 = getelementptr inbounds %"struct.ofbx::Element", ptr %16, i32 0, i32 4
  %18 = load ptr, ptr %17, align 8
  %19 = icmp ne ptr %18, null
  br i1 %19, label %20, label %35

20:                                               ; preds = %3
  %21 = load ptr, ptr %7, align 8
  %22 = getelementptr inbounds %"struct.ofbx::Element", ptr %21, i32 0, i32 4
  %23 = load ptr, ptr %22, align 8
  %24 = getelementptr inbounds %"struct.ofbx::Property", ptr %23, i32 0, i32 5
  %25 = load ptr, ptr %24, align 8
  %26 = icmp ne ptr %25, null
  br i1 %26, label %27, label %35

27:                                               ; preds = %20
  %28 = load ptr, ptr %7, align 8
  %29 = getelementptr inbounds %"struct.ofbx::Element", ptr %28, i32 0, i32 4
  %30 = load ptr, ptr %29, align 8
  %31 = getelementptr inbounds %"struct.ofbx::Property", ptr %30, i32 0, i32 5
  %32 = load ptr, ptr %31, align 8
  %33 = getelementptr inbounds %"struct.ofbx::Property", ptr %32, i32 0, i32 4
  %34 = getelementptr inbounds %"struct.ofbx::Object", ptr %8, i32 0, i32 2
  call void @_ZNK4ofbx8DataView8toStringILi128EEEvRAT__c(ptr noundef nonnull align 8 dereferenceable(17) %33, ptr noundef nonnull align 1 dereferenceable(128) %34)
  br label %38

35:                                               ; preds = %20, %3
  %36 = getelementptr inbounds %"struct.ofbx::Object", ptr %8, i32 0, i32 2
  %37 = getelementptr inbounds [128 x i8], ptr %36, i64 0, i64 0
  store i8 0, ptr %37, align 8
  br label %38

38:                                               ; preds = %35, %27
  ret void
}

; Function Attrs: mustprogress uwtable
define void @_ZN4ofbx14AnimationCurveC2ERKNS_5SceneERKNS_8IElementE(ptr noundef nonnull align 8 dereferenceable(176) %0, ptr noundef nonnull align 8 dereferenceable(296) %1, ptr noundef nonnull align 8 dereferenceable(8) %2) unnamed_addr #3 align 2 {
  %4 = alloca ptr, align 8
  %5 = alloca ptr, align 8
  %6 = alloca ptr, align 8
  store ptr %0, ptr %4, align 8
  store ptr %1, ptr %5, align 8
  store ptr %2, ptr %6, align 8
  %7 = load ptr, ptr %4, align 8
  %8 = load ptr, ptr %5, align 8
  %9 = load ptr, ptr %6, align 8
  call void @_ZN4ofbx6ObjectC2ERKNS_5SceneERKNS_8IElementE(ptr noundef nonnull align 8 dereferenceable(176) %7, ptr noundef nonnull align 8 dereferenceable(296) %8, ptr noundef nonnull align 8 dereferenceable(8) %9)
  store ptr getelementptr inbounds ({ [8 x ptr] }, ptr @_ZTVN4ofbx14AnimationCurveE, i32 0, i32 0, i32 2), ptr %7, align 8
  ret void
}